; Function Attrs: mustprogress nounwind uwtable
define void @_ZN5boost4json6object5clearEv(ptr nocapture noundef nonnull readonly align 8 dereferenceable(24) %0) local_unnamed_addr #7 align 2 personality ptr @__gxx_personality_v0 {
  %2 = getelementptr inbounds nuw i8, ptr %0, i64 16
  %3 = load ptr, ptr %2, align 8, !tbaa !102
  %4 = load i32, ptr %3, align 8, !tbaa !106
  %5 = icmp eq i32 %4, 0
  br i1 %5, label %43, label %6

6:                                                ; preds = %1
  %7 = load i64, ptr %0, align 8, !tbaa !17
  %8 = and i64 %7, 3
  %9 = icmp eq i64 %8, 2
  br i1 %9, label %_ZN5boost4json6object7destroyEPNS0_14key_value_pairES3_.exit, label %10

10:                                               ; preds = %6
  %11 = zext i32 %4 to i64
  %.idx = mul nuw nsw i64 %11, 40
  %.add = add nuw nsw i64 %.idx, 16
  br label %.lr.ph.i

.lr.ph.i:                                         ; preds = %10, %_ZN5boost4json14key_value_pairD2Ev.exit.i
  %.04.i.idx = phi i64 [ %.04.i.add, %_ZN5boost4json14key_value_pairD2Ev.exit.i ], [ %.add, %10 ]
  %.04.i.ptr = getelementptr inbounds i8, ptr %3, i64 %.04.i.idx
  %.04.i.add = add nsw i64 %.04.i.idx, -40
  %.ptr = getelementptr inbounds i8, ptr %3, i64 %.04.i.add
  %12 = load i64, ptr %.ptr, align 8, !tbaa !17
  %13 = and i64 %12, 3
  %14 = icmp eq i64 %13, 2
  br i1 %14, label %_ZN5boost4json14key_value_pairD2Ev.exit.i, label %15

15:                                               ; preds = %.lr.ph.i
  %16 = getelementptr inbounds i8, ptr %.04.i.ptr, i64 -16
  %17 = load ptr, ptr %16, align 8, !tbaa !111
  %18 = icmp eq ptr %17, @_ZN5boost4json14key_value_pair6empty_E
  br i1 %18, label %_ZN5boost4json14key_value_pairD2Ev.exit.i, label %19

19:                                               ; preds = %15
  %.not.i.i.i.i = icmp eq i64 %12, 0
  %20 = and i64 %12, -4
  %21 = inttoptr i64 %20 to ptr
  %.0.i.i.i.i = select i1 %.not.i.i.i.i, ptr @_ZN5boost4json6detail16default_resource9instance_E, ptr %21
  %22 = getelementptr inbounds i8, ptr %.04.i.ptr, i64 -8
  %23 = load i32, ptr %22, align 8, !tbaa !107
  %24 = add i32 %23, 1
  %25 = zext i32 %24 to i64
  %26 = load ptr, ptr %.0.i.i.i.i, align 8, !tbaa !19
  %27 = getelementptr inbounds i8, ptr %26, i64 24
  %28 = load ptr, ptr %27, align 8
  invoke void %28(ptr noundef nonnull align 8 dereferenceable(8) %.0.i.i.i.i, ptr noundef %17, i64 noundef %25, i64 noundef 1)
          to label %_ZN5boost4json14key_value_pairD2Ev.exit.i unwind label %29

29:                                               ; preds = %19
  %30 = landingpad { ptr, i32 }
          catch ptr null
  %31 = extractvalue { ptr, i32 } %30, 0
  tail call void @__clang_call_terminate(ptr %31) #50
  unreachable

_ZN5boost4json14key_value_pairD2Ev.exit.i:        ; preds = %19, %15, %.lr.ph.i
  tail call void @_ZN5boost4json5valueD1Ev(ptr noundef nonnull align 8 dereferenceable(40) %.ptr) #48
  %.not.i = icmp eq i64 %.04.i.add, 16
  br i1 %.not.i, label %_ZN5boost4json6object7destroyEPNS0_14key_value_pairES3_.exit.loopexit, label %.lr.ph.i, !llvm.loop !117

_ZN5boost4json6object7destroyEPNS0_14key_value_pairES3_.exit.loopexit: ; preds = %_ZN5boost4json14key_value_pairD2Ev.exit.i
  %.pre = load ptr, ptr %2, align 8, !tbaa !102
  br label %_ZN5boost4json6object7destroyEPNS0_14key_value_pairES3_.exit

_ZN5boost4json6object7destroyEPNS0_14key_value_pairES3_.exit: ; preds = %_ZN5boost4json6object7destroyEPNS0_14key_value_pairES3_.exit.loopexit, %6
  %32 = phi ptr [ %.pre, %_ZN5boost4json6object7destroyEPNS0_14key_value_pairES3_.exit.loopexit ], [ %3, %6 ]
  %33 = getelementptr inbounds nuw i8, ptr %32, i64 4
  %34 = load i32, ptr %33, align 4, !tbaa !104
  %35 = icmp ult i32 %34, 19
  br i1 %35, label %41, label %36

36:                                               ; preds = %_ZN5boost4json6object7destroyEPNS0_14key_value_pairES3_.exit
  %37 = zext i32 %34 to i64
  %38 = getelementptr inbounds i8, ptr %32, i64 16
  %39 = getelementptr inbounds nuw %"class.boost::json::key_value_pair", ptr %38, i64 %37
  %40 = shl nuw nsw i64 %37, 2
  tail call void @llvm.memset.p0.i64(ptr nonnull align 8 %39, i8 -1, i64 %40, i1 false)
  %.pre3 = load ptr, ptr %2, align 8, !tbaa !102
  br label %41

41:                                               ; preds = %36, %_ZN5boost4json6object7destroyEPNS0_14key_value_pairES3_.exit
  %42 = phi ptr [ %.pre3, %36 ], [ %32, %_ZN5boost4json6object7destroyEPNS0_14key_value_pairES3_.exit ]
  store i32 0, ptr %42, align 8, !tbaa !106
  br label %43

43:                                               ; preds = %1, %41
  ret void
}